; Function Attrs: mustprogress uwtable
define hidden void @_ZN4cvc58internal3smt17SolverEngineState14notifyCheckSatEv(ptr noundef nonnull align 8 dereferenceable(108) %0) local_unnamed_addr #3 align 2 personality ptr @__gxx_personality_v0 {
  %2 = getelementptr inbounds nuw i8, ptr %0, i64 17
  %3 = load i8, ptr %2, align 1, !tbaa !21, !range !213, !noundef !214
  %4 = trunc nuw i8 %3 to i1
  br i1 %4, label %5, label %17

5:                                                ; preds = %1
  %6 = tail call noundef nonnull align 8 dereferenceable(408) ptr @_ZNK4cvc58internal6EnvObj7optionsEv(ptr noundef nonnull align 8 dereferenceable(16) %0)
  %7 = getelementptr inbounds nuw i8, ptr %6, i64 224
  %8 = load ptr, ptr %7, align 8, !tbaa !215
  %9 = getelementptr inbounds nuw i8, ptr %8, i64 137
  %10 = load i8, ptr %9, align 1, !tbaa !216, !range !213, !noundef !214
  %11 = trunc nuw i8 %10 to i1
  br i1 %11, label %17, label %12

12:                                               ; preds = %5
  %13 = tail call ptr @__cxa_allocate_exception(i64 40) #17
  invoke void @_ZN4cvc58internal14ModalExceptionC2EPKc(ptr noundef nonnull align 8 dereferenceable(40) %13, ptr noundef nonnull @.str)
          to label %14 unwind label %15

14:                                               ; preds = %12
  tail call void @__cxa_throw(ptr nonnull %13, ptr nonnull @_ZTIN4cvc58internal14ModalExceptionE, ptr nonnull @_ZN4cvc58internal9ExceptionD2Ev) #18
  unreachable

15:                                               ; preds = %12
  %16 = landingpad { ptr, i32 }
          cleanup
  tail call void @__cxa_free_exception(ptr nonnull %13) #17
  resume { ptr, i32 } %16

17:                                               ; preds = %5, %1
  %18 = getelementptr inbounds nuw i8, ptr %0, i64 104
  store i32 1, ptr %18, align 8, !tbaa !22
  ret void
}